target datalayout = "e-m:e-p270:32:32-p271:32:32-p272:64:64-i64:64-i128:128-f80:128-n8:16:32:64-S128"
target triple = "x86_64-pc-linux-gnu"

%struct.CFF_VStoreRec_ = type { i32, ptr, i16, i32, ptr }
%struct.CFF_VarData_ = type { i32, ptr }
%struct.CFF_VarRegion_ = type { ptr }

; Function Attrs: nounwind uwtable
define internal void @cff_vstore_done(ptr noundef %0, ptr noundef %1) #0 {
  %3 = alloca ptr, align 8
  %4 = alloca ptr, align 8
  %5 = alloca i32, align 4
  store ptr %0, ptr %3, align 8
  store ptr %1, ptr %4, align 8
  %6 = load ptr, ptr %3, align 8
  %7 = getelementptr inbounds %struct.CFF_VStoreRec_, ptr %6, i32 0, i32 4
  %8 = load ptr, ptr %7, align 8
  %9 = icmp ne ptr %8, null
  br i1 %9, label %10, label %40

10:                                               ; preds = %2
  store i32 0, ptr %5, align 4
  br label %11

11:                                               ; preds = %36, %10
  %12 = load i32, ptr %5, align 4
  %13 = load ptr, ptr %3, align 8
  %14 = getelementptr inbounds %struct.CFF_VStoreRec_, ptr %13, i32 0, i32 3
  %15 = load i32, ptr %14, align 4
  %16 = icmp ult i32 %12, %15
  br i1 %16, label %17, label %39

17:                                               ; preds = %11
  br label %18

18:                                               ; preds = %17
  %19 = load ptr, ptr %4, align 8
  %20 = load ptr, ptr %3, align 8
  %21 = getelementptr inbounds %struct.CFF_VStoreRec_, ptr %20, i32 0, i32 4
  %22 = load ptr, ptr %21, align 8
  %23 = load i32, ptr %5, align 4
  %24 = zext i32 %23 to i64
  %25 = getelementptr inbounds %struct.CFF_VarRegion_, ptr %22, i64 %24
  %26 = getelementptr inbounds %struct.CFF_VarRegion_, ptr %25, i32 0, i32 0
  %27 = load ptr, ptr %26, align 8
  call void @ft_mem_free(ptr noundef %19, ptr noundef %27)
  %28 = load ptr, ptr %3, align 8
  %29 = getelementptr inbounds %struct.CFF_VStoreRec_, ptr %28, i32 0, i32 4
  %30 = load ptr, ptr %29, align 8
  %31 = load i32, ptr %5, align 4
  %32 = zext i32 %31 to i64
  %33 = getelementptr inbounds %struct.CFF_VarRegion_, ptr %30, i64 %32
  %34 = getelementptr inbounds %struct.CFF_VarRegion_, ptr %33, i32 0, i32 0
  store ptr null, ptr %34, align 8
  br label %35

35:                                               ; preds = %18
  br label %36

36:                                               ; preds = %35
  %37 = load i32, ptr %5, align 4
  %38 = add i32 %37, 1
  store i32 %38, ptr %5, align 4
  br label %11, !llvm.loop !68

39:                                               ; preds = %11
  br label %40

40:                                               ; preds = %39, %2
  br label %41

41:                                               ; preds = %40
  %42 = load ptr, ptr %4, align 8
  %43 = load ptr, ptr %3, align 8
  %44 = getelementptr inbounds %struct.CFF_VStoreRec_, ptr %43, i32 0, i32 4
  %45 = load ptr, ptr %44, align 8
  call void @ft_mem_free(ptr noundef %42, ptr noundef %45)
  %46 = load ptr, ptr %3, align 8
  %47 = getelementptr inbounds %struct.CFF_VStoreRec_, ptr %46, i32 0, i32 4
  store ptr null, ptr %47, align 8
  br label %48

48:                                               ; preds = %41
  %49 = load ptr, ptr %3, align 8
  %50 = getelementptr inbounds %struct.CFF_VStoreRec_, ptr %49, i32 0, i32 1
  %51 = load ptr, ptr %50, align 8
  %52 = icmp ne ptr %51, null
  br i1 %52, label %53, label %83

53:                                               ; preds = %48
  store i32 0, ptr %5, align 4
  br label %54

54:                                               ; preds = %79, %53
  %55 = load i32, ptr %5, align 4
  %56 = load ptr, ptr %3, align 8
  %57 = getelementptr inbounds %struct.CFF_VStoreRec_, ptr %56, i32 0, i32 0
  %58 = load i32, ptr %57, align 8
  %59 = icmp ult i32 %55, %58
  br i1 %59, label %60, label %82

60:                                               ; preds = %54
  br label %61

61:                                               ; preds = %60
  %62 = load ptr, ptr %4, align 8
  %63 = load ptr, ptr %3, align 8
  %64 = getelementptr inbounds %struct.CFF_VStoreRec_, ptr %63, i32 0, i32 1
  %65 = load ptr, ptr %64, align 8
  %66 = load i32, ptr %5, align 4
  %67 = zext i32 %66 to i64
  %68 = getelementptr inbounds %struct.CFF_VarData_, ptr %65, i64 %67
  %69 = getelementptr inbounds %struct.CFF_VarData_, ptr %68, i32 0, i32 1
  %70 = load ptr, ptr %69, align 8
  call void @ft_mem_free(ptr noundef %62, ptr noundef %70)
  %71 = load ptr, ptr %3, align 8
  %72 = getelementptr inbounds %struct.CFF_VStoreRec_, ptr %71, i32 0, i32 1
  %73 = load ptr, ptr %72, align 8
  %74 = load i32, ptr %5, align 4
  %75 = zext i32 %74 to i64
  %76 = getelementptr inbounds %struct.CFF_VarData_, ptr %73, i64 %75
  %77 = getelementptr inbounds %struct.CFF_VarData_, ptr %76, i32 0, i32 1
  store ptr null, ptr %77, align 8
  br label %78

78:                                               ; preds = %61
  br label %79

79:                                               ; preds = %78
  %80 = load i32, ptr %5, align 4
  %81 = add i32 %80, 1
  store i32 %81, ptr %5, align 4
  br label %54, !llvm.loop !69

82:                                               ; preds = %54
  br label %83

83:                                               ; preds = %82, %48
  br label %84

84:                                               ; preds = %83
  %85 = load ptr, ptr %4, align 8
  %86 = load ptr, ptr %3, align 8
  %87 = getelementptr inbounds %struct.CFF_VStoreRec_, ptr %86, i32 0, i32 1
  %88 = load ptr, ptr %87, align 8
  call void @ft_mem_free(ptr noundef %85, ptr noundef %88)
  %89 = load ptr, ptr %3, align 8
  %90 = getelementptr inbounds %struct.CFF_VStoreRec_, ptr %89, i32 0, i32 1
  store ptr null, ptr %90, align 8
  br label %91

91:                                               ; preds = %84
  ret void
}