; Function Attrs: nounwind uwtable
define internal fastcc void @cff_vstore_done(ptr nocapture noundef %0, ptr noundef %1) unnamed_addr #4 {
  %3 = getelementptr inbounds i8, ptr %0, i64 24
  %4 = load ptr, ptr %3, align 8
  %.not = icmp eq ptr %4, null
  br i1 %.not, label %.loopexit25, label %.preheader24

.preheader24:                                     ; preds = %2
  %5 = getelementptr inbounds i8, ptr %0, i64 20
  %6 = load i32, ptr %5, align 4
  %.not29 = icmp eq i32 %6, 0
  br i1 %.not29, label %.loopexit25, label %.lr.ph

.lr.ph:                                           ; preds = %.preheader24, %.lr.ph
  %indvars.iv = phi i64 [ %indvars.iv.next, %.lr.ph ], [ 0, %.preheader24 ]
  %7 = load ptr, ptr %3, align 8
  %8 = getelementptr inbounds %struct.CFF_VarRegion_, ptr %7, i64 %indvars.iv
  %9 = load ptr, ptr %8, align 8
  tail call void @ft_mem_free(ptr noundef %1, ptr noundef %9) #20
  %10 = load ptr, ptr %3, align 8
  %11 = getelementptr inbounds %struct.CFF_VarRegion_, ptr %10, i64 %indvars.iv
  store ptr null, ptr %11, align 8
  %indvars.iv.next = add nuw nsw i64 %indvars.iv, 1
  %12 = load i32, ptr %5, align 4
  %13 = zext i32 %12 to i64
  %14 = icmp ult i64 %indvars.iv.next, %13
  br i1 %14, label %.lr.ph, label %.loopexit25.loopexit, !llvm.loop !70

.loopexit25.loopexit:                             ; preds = %.lr.ph
  %.pre = load ptr, ptr %3, align 8
  br label %.loopexit25

.loopexit25:                                      ; preds = %.loopexit25.loopexit, %.preheader24, %2
  %15 = phi ptr [ %.pre, %.loopexit25.loopexit ], [ %4, %.preheader24 ], [ null, %2 ]
  tail call void @ft_mem_free(ptr noundef %1, ptr noundef %15) #20
  store ptr null, ptr %3, align 8
  %16 = getelementptr inbounds i8, ptr %0, i64 8
  %17 = load ptr, ptr %16, align 8
  %.not23 = icmp eq ptr %17, null
  br i1 %.not23, label %.loopexit, label %.preheader

.preheader:                                       ; preds = %.loopexit25
  %18 = load i32, ptr %0, align 8
  %.not30 = icmp eq i32 %18, 0
  br i1 %.not30, label %.loopexit, label %.lr.ph28

.lr.ph28:                                         ; preds = %.preheader, %.lr.ph28
  %indvars.iv32 = phi i64 [ %indvars.iv.next33, %.lr.ph28 ], [ 0, %.preheader ]
  %19 = load ptr, ptr %16, align 8
  %20 = getelementptr inbounds %struct.CFF_VarData_, ptr %19, i64 %indvars.iv32, i32 1
  %21 = load ptr, ptr %20, align 8
  tail call void @ft_mem_free(ptr noundef %1, ptr noundef %21) #20
  %22 = load ptr, ptr %16, align 8
  %23 = getelementptr inbounds %struct.CFF_VarData_, ptr %22, i64 %indvars.iv32, i32 1
  store ptr null, ptr %23, align 8
  %indvars.iv.next33 = add nuw nsw i64 %indvars.iv32, 1
  %24 = load i32, ptr %0, align 8
  %25 = zext i32 %24 to i64
  %26 = icmp ult i64 %indvars.iv.next33, %25
  br i1 %26, label %.lr.ph28, label %.loopexit.loopexit, !llvm.loop !71

.loopexit.loopexit:                               ; preds = %.lr.ph28
  %.pre35 = load ptr, ptr %16, align 8
  br label %.loopexit

.loopexit:                                        ; preds = %.loopexit.loopexit, %.preheader, %.loopexit25
  %27 = phi ptr [ %.pre35, %.loopexit.loopexit ], [ %17, %.preheader ], [ null, %.loopexit25 ]
  tail call void @ft_mem_free(ptr noundef %1, ptr noundef %27) #20
  store ptr null, ptr %16, align 8
  ret void
}